; Function Attrs: mustprogress nounwind uwtable
define hidden void @_ZN7Imf_3_43ZipD2Ev(ptr noundef nonnull readonly align 8 captures(none) dereferenceable(20) %0) unnamed_addr #2 align 2 {
  %2 = getelementptr inbounds nuw i8, ptr %0, i64 8
  %3 = load ptr, ptr %2, align 8, !tbaa !11
  %.not = icmp eq ptr %3, null
  br i1 %.not, label %5, label %4

4:                                                ; preds = %1
  tail call void @_ZdaPv(ptr noundef nonnull %3) #16
  br label %5

5:                                                ; preds = %4, %1
  ret void
}